; Function Attrs: nounwind uwtable
define ptr @l_Lean_IR_ExplicitBoxing_castArgsIfNeeded___lambda__1(ptr noundef readonly captures(none) %0, ptr noundef %1) local_unnamed_addr #0 {
  %3 = load ptr, ptr @l_Lean_IR_instInhabitedParam, align 8, !tbaa !4
  %4 = ptrtoint ptr %1 to i64
  %5 = and i64 %4, 1
  %.not.i7 = icmp eq i64 %5, 0
  br i1 %.not.i7, label %lean_array_uget.exit.i, label %6

6:                                                ; preds = %2
  %7 = lshr i64 %4, 1
  %8 = getelementptr i8, ptr %0, i64 8
  %.val.i = load i64, ptr %8, align 8, !tbaa !8
  %9 = icmp ult i64 %7, %.val.i
  br i1 %9, label %10, label %lean_array_uget.exit.i

10:                                               ; preds = %6
  %11 = ptrtoint ptr %3 to i64
  %12 = and i64 %11, 1
  %.not14.i = icmp eq i64 %12, 0
  br i1 %.not14.i, label %13, label %lean_dec.exit.i

13:                                               ; preds = %10
  %14 = load i32, ptr %3, align 4, !tbaa !10
  %15 = icmp sgt i32 %14, 1
  br i1 %15, label %16, label %18, !prof !13

16:                                               ; preds = %13
  %17 = add nsw i32 %14, -1
  store i32 %17, ptr %3, align 4, !tbaa !10
  br label %lean_dec.exit.i

18:                                               ; preds = %13
  %.not.i.i = icmp eq i32 %14, 0
  br i1 %.not.i.i, label %lean_dec.exit.i, label %19

19:                                               ; preds = %18
  tail call void @lean_dec_ref_cold(ptr noundef nonnull %3) #6
  br label %lean_dec.exit.i

lean_dec.exit.i:                                  ; preds = %19, %18, %16, %10
  %20 = getelementptr inbounds nuw i8, ptr %0, i64 24
  %21 = getelementptr inbounds nuw [0 x ptr], ptr %20, i64 0, i64 %7
  %22 = load ptr, ptr %21, align 8, !tbaa !4
  %23 = ptrtoint ptr %22 to i64
  %24 = and i64 %23, 1
  %.not.i11.i = icmp eq i64 %24, 0
  br i1 %.not.i11.i, label %25, label %lean_array_get.exit

25:                                               ; preds = %lean_dec.exit.i
  %.val.i.i.i = load i32, ptr %22, align 4, !tbaa !10
  %26 = icmp sgt i32 %.val.i.i.i, 0
  br i1 %26, label %27, label %29, !prof !13

27:                                               ; preds = %25
  %28 = add nuw i32 %.val.i.i.i, 1
  store i32 %28, ptr %22, align 4, !tbaa !10
  br label %lean_array_get.exit

29:                                               ; preds = %25
  %.not.i.i.i = icmp eq i32 %.val.i.i.i, 0
  br i1 %.not.i.i.i, label %lean_array_get.exit, label %30

30:                                               ; preds = %29
  tail call void @lean_inc_ref_cold(ptr noundef nonnull %22) #6
  br label %lean_array_get.exit

lean_array_uget.exit.i:                           ; preds = %6, %2
  %31 = tail call ptr @lean_array_get_panic(ptr noundef %3) #6
  br label %lean_array_get.exit

lean_array_get.exit:                              ; preds = %lean_dec.exit.i, %27, %29, %30, %lean_array_uget.exit.i
  %.1.i = phi ptr [ %31, %lean_array_uget.exit.i ], [ %22, %30 ], [ %22, %29 ], [ %22, %27 ], [ %22, %lean_dec.exit.i ]
  %32 = getelementptr inbounds nuw i8, ptr %.1.i, i64 16
  %33 = load ptr, ptr %32, align 8, !tbaa !4
  %34 = ptrtoint ptr %33 to i64
  %35 = and i64 %34, 1
  %.not = icmp eq i64 %35, 0
  br i1 %.not, label %36, label %lean_inc.exit

36:                                               ; preds = %lean_array_get.exit
  %.val.i8 = load i32, ptr %33, align 4, !tbaa !10
  %37 = icmp sgt i32 %.val.i8, 0
  br i1 %37, label %38, label %40, !prof !13

38:                                               ; preds = %36
  %39 = add nuw i32 %.val.i8, 1
  store i32 %39, ptr %33, align 4, !tbaa !10
  br label %lean_inc.exit

40:                                               ; preds = %36
  %.not.i9 = icmp eq i32 %.val.i8, 0
  br i1 %.not.i9, label %lean_inc.exit, label %41

41:                                               ; preds = %40
  tail call void @lean_inc_ref_cold(ptr noundef nonnull %33) #6
  br label %lean_inc.exit

lean_inc.exit:                                    ; preds = %41, %40, %38, %lean_array_get.exit
  %42 = ptrtoint ptr %.1.i to i64
  %43 = and i64 %42, 1
  %.not10 = icmp eq i64 %43, 0
  br i1 %.not10, label %44, label %lean_dec.exit

44:                                               ; preds = %lean_inc.exit
  %45 = load i32, ptr %.1.i, align 4, !tbaa !10
  %46 = icmp sgt i32 %45, 1
  br i1 %46, label %47, label %49, !prof !13

47:                                               ; preds = %44
  %48 = add nsw i32 %45, -1
  store i32 %48, ptr %.1.i, align 4, !tbaa !10
  br label %lean_dec.exit

49:                                               ; preds = %44
  %.not.i = icmp eq i32 %45, 0
  br i1 %.not.i, label %lean_dec.exit, label %50

50:                                               ; preds = %49
  tail call void @lean_dec_ref_cold(ptr noundef nonnull %.1.i) #6
  br label %lean_dec.exit

lean_dec.exit:                                    ; preds = %50, %49, %47, %lean_inc.exit
  ret ptr %33
}